target datalayout = "e-m:e-p270:32:32-p271:32:32-p272:64:64-i64:64-i128:128-f80:128-n8:16:32:64-S128"
target triple = "x86_64-pc-linux-gnu"

%struct.TString = type { i8, i8, i8, i16, ptr, i32, i32, [1 x i8] }

; Function Attrs: mustprogress nounwind uwtable
define hidden noundef i32 @_Z11luaV_strcmpPK7TStringS1_(ptr noundef %0, ptr noundef %1) #3 {
  %3 = alloca i32, align 4
  %4 = alloca ptr, align 8
  %5 = alloca ptr, align 8
  %6 = alloca ptr, align 8
  %7 = alloca ptr, align 8
  %8 = alloca i32, align 4
  %9 = alloca i64, align 8
  %10 = alloca i64, align 8
  %11 = alloca i64, align 8
  %12 = alloca i32, align 4
  store ptr %0, ptr %4, align 8, !tbaa !37
  store ptr %1, ptr %5, align 8, !tbaa !37
  %13 = load ptr, ptr %4, align 8, !tbaa !37
  %14 = load ptr, ptr %5, align 8, !tbaa !37
  %15 = icmp eq ptr %13, %14
  br i1 %15, label %16, label %17

16:                                               ; preds = %2
  store i32 0, ptr %3, align 4
  br label %79

17:                                               ; preds = %2
  call void @llvm.lifetime.start.p0(i64 8, ptr %6) #11
  %18 = load ptr, ptr %4, align 8, !tbaa !37
  %19 = getelementptr inbounds nuw %struct.TString, ptr %18, i32 0, i32 7
  %20 = getelementptr inbounds [1 x i8], ptr %19, i64 0, i64 0
  store ptr %20, ptr %6, align 8, !tbaa !17
  call void @llvm.lifetime.start.p0(i64 8, ptr %7) #11
  %21 = load ptr, ptr %5, align 8, !tbaa !37
  %22 = getelementptr inbounds nuw %struct.TString, ptr %21, i32 0, i32 7
  %23 = getelementptr inbounds [1 x i8], ptr %22, i64 0, i64 0
  store ptr %23, ptr %7, align 8, !tbaa !17
  %24 = load ptr, ptr %6, align 8, !tbaa !17
  %25 = load i8, ptr %24, align 1, !tbaa !12
  %26 = sext i8 %25 to i32
  %27 = load ptr, ptr %7, align 8, !tbaa !17
  %28 = load i8, ptr %27, align 1, !tbaa !12
  %29 = sext i8 %28 to i32
  %30 = icmp ne i32 %26, %29
  br i1 %30, label %31, label %39

31:                                               ; preds = %17
  %32 = load ptr, ptr %6, align 8, !tbaa !17
  %33 = load i8, ptr %32, align 1, !tbaa !12
  %34 = zext i8 %33 to i32
  %35 = load ptr, ptr %7, align 8, !tbaa !17
  %36 = load i8, ptr %35, align 1, !tbaa !12
  %37 = zext i8 %36 to i32
  %38 = sub nsw i32 %34, %37
  store i32 %38, ptr %3, align 4
  store i32 1, ptr %8, align 4
  br label %78

39:                                               ; preds = %17
  call void @llvm.lifetime.start.p0(i64 8, ptr %9) #11
  %40 = load ptr, ptr %4, align 8, !tbaa !37
  %41 = getelementptr inbounds nuw %struct.TString, ptr %40, i32 0, i32 6
  %42 = load i32, ptr %41, align 4, !tbaa !48
  %43 = zext i32 %42 to i64
  store i64 %43, ptr %9, align 8, !tbaa !42
  call void @llvm.lifetime.start.p0(i64 8, ptr %10) #11
  %44 = load ptr, ptr %5, align 8, !tbaa !37
  %45 = getelementptr inbounds nuw %struct.TString, ptr %44, i32 0, i32 6
  %46 = load i32, ptr %45, align 4, !tbaa !48
  %47 = zext i32 %46 to i64
  store i64 %47, ptr %10, align 8, !tbaa !42
  call void @llvm.lifetime.start.p0(i64 8, ptr %11) #11
  %48 = load i64, ptr %9, align 8, !tbaa !42
  %49 = load i64, ptr %10, align 8, !tbaa !42
  %50 = icmp ult i64 %48, %49
  br i1 %50, label %51, label %53

51:                                               ; preds = %39
  %52 = load i64, ptr %9, align 8, !tbaa !42
  br label %55

53:                                               ; preds = %39
  %54 = load i64, ptr %10, align 8, !tbaa !42
  br label %55

55:                                               ; preds = %53, %51
  %56 = phi i64 [ %52, %51 ], [ %54, %53 ]
  store i64 %56, ptr %11, align 8, !tbaa !42
  call void @llvm.lifetime.start.p0(i64 4, ptr %12) #11
  %57 = load ptr, ptr %6, align 8, !tbaa !17
  %58 = load ptr, ptr %7, align 8, !tbaa !17
  %59 = load i64, ptr %11, align 8, !tbaa !42
  %60 = call i32 @memcmp(ptr noundef %57, ptr noundef %58, i64 noundef %59) #13
  store i32 %60, ptr %12, align 4, !tbaa !19
  %61 = load i32, ptr %12, align 4, !tbaa !19
  %62 = icmp ne i32 %61, 0
  br i1 %62, label %63, label %65

63:                                               ; preds = %55
  %64 = load i32, ptr %12, align 4, !tbaa !19
  store i32 %64, ptr %3, align 4
  store i32 1, ptr %8, align 4
  br label %77

65:                                               ; preds = %55
  %66 = load i64, ptr %9, align 8, !tbaa !42
  %67 = load i64, ptr %10, align 8, !tbaa !42
  %68 = icmp eq i64 %66, %67
  br i1 %68, label %69, label %70

69:                                               ; preds = %65
  br label %75

70:                                               ; preds = %65
  %71 = load i64, ptr %9, align 8, !tbaa !42
  %72 = load i64, ptr %10, align 8, !tbaa !42
  %73 = icmp ult i64 %71, %72
  %74 = select i1 %73, i32 -1, i32 1
  br label %75

75:                                               ; preds = %70, %69
  %76 = phi i32 [ 0, %69 ], [ %74, %70 ]
  store i32 %76, ptr %3, align 4
  store i32 1, ptr %8, align 4
  br label %77

77:                                               ; preds = %75, %63
  call void @llvm.lifetime.end.p0(i64 4, ptr %12) #11
  call void @llvm.lifetime.end.p0(i64 8, ptr %11) #11
  call void @llvm.lifetime.end.p0(i64 8, ptr %10) #11
  call void @llvm.lifetime.end.p0(i64 8, ptr %9) #11
  br label %78

78:                                               ; preds = %77, %31
  call void @llvm.lifetime.end.p0(i64 8, ptr %7) #11
  call void @llvm.lifetime.end.p0(i64 8, ptr %6) #11
  br label %79

79:                                               ; preds = %78, %16
  %80 = load i32, ptr %3, align 4
  ret i32 %80
}