; Function Attrs: mustprogress nofree nounwind willreturn memory(argmem: read) uwtable
define hidden noundef i32 @_Z11luaV_strcmpPK7TStringS1_(ptr noundef readonly %0, ptr noundef readonly %1) local_unnamed_addr #6 {
  %3 = icmp eq ptr %0, %1
  br i1 %3, label %22, label %4

4:                                                ; preds = %2
  %5 = getelementptr inbounds nuw i8, ptr %0, i64 24
  %6 = getelementptr inbounds nuw i8, ptr %1, i64 24
  %7 = load i8, ptr %5, align 1, !tbaa !9
  %8 = load i8, ptr %6, align 1, !tbaa !9
  %.not = icmp eq i8 %7, %8
  br i1 %.not, label %13, label %9

9:                                                ; preds = %4
  %10 = zext i8 %7 to i32
  %11 = zext i8 %8 to i32
  %12 = sub nsw i32 %10, %11
  br label %22

13:                                               ; preds = %4
  %14 = getelementptr inbounds nuw i8, ptr %0, i64 20
  %15 = load i32, ptr %14, align 4, !tbaa !40
  %16 = getelementptr inbounds nuw i8, ptr %1, i64 20
  %17 = load i32, ptr %16, align 4, !tbaa !40
  %18 = tail call i32 @llvm.umin.i32(i32 %15, i32 %17)
  %19 = zext i32 %18 to i64
  %20 = tail call i32 @memcmp(ptr noundef nonnull %5, ptr noundef nonnull %6, i64 noundef %19) #13
  %.not26 = icmp eq i32 %20, 0
  %21 = tail call i32 @llvm.ucmp.i32.i32(i32 %15, i32 %17)
  %.2 = select i1 %.not26, i32 %21, i32 %20
  br label %22

22:                                               ; preds = %9, %13, %2
  %.0 = phi i32 [ 0, %2 ], [ %12, %9 ], [ %.2, %13 ]
  ret i32 %.0
}